target datalayout = "e-m:e-p270:32:32-p271:32:32-p272:64:64-i64:64-i128:128-f80:128-n8:16:32:64-S128"
target triple = "x86_64-pc-linux-gnu"

%"class.clang::SourceLocation" = type { i32 }
%"class.clang::Stmt" = type { %union.anon.378 }
%union.anon.378 = type { %"class.clang::Stmt::PseudoObjectExprBitfields" }
%"class.clang::Stmt::PseudoObjectExprBitfields" = type { i64 }
%"class.clang::ObjCAutoreleasePoolStmt" = type { %"class.clang::Stmt", %"class.clang::SourceLocation", ptr }

; Function Attrs: mustprogress nounwind uwtable
define linkonce_odr hidden noundef ptr @_ZN5clang23ObjCAutoreleasePoolStmt10getSubStmtEv(ptr noundef nonnull align 8 dereferenceable(24) %0) #0 comdat align 2 {
  %2 = alloca ptr, align 8
  store ptr %0, ptr %2, align 8
  %3 = load ptr, ptr %2, align 8
  %4 = getelementptr inbounds nuw %"class.clang::ObjCAutoreleasePoolStmt", ptr %3, i32 0, i32 2
  %5 = load ptr, ptr %4, align 8
  ret ptr %5
}

; Function Attrs: mustprogress nounwind uwtable
define internal noundef zeroext i1 @_ZN12_GLOBAL__N_112EmptyChecker28VisitObjCAutoreleasePoolStmtEPN5clang23ObjCAutoreleasePoolStmtE(ptr noundef nonnull align 8 dereferenceable(16) %0, ptr noundef %1) #0 align 2 {
  %3 = alloca i1, align 1
  %4 = alloca ptr, align 8
  %5 = alloca ptr, align 8
  store ptr %0, ptr %4, align 8
  store ptr %1, ptr %5, align 8
  %6 = load ptr, ptr %4, align 8
  %7 = load ptr, ptr %5, align 8
  %8 = call noundef ptr @_ZN5clang23ObjCAutoreleasePoolStmt10getSubStmtEv(ptr noundef nonnull align 8 dereferenceable(24) %7)
  %9 = icmp ne ptr %8, null
  br i1 %9, label %11, label %10

10:                                               ; preds = %2
  store i1 false, ptr %3, align 1
  br label %15

11:                                               ; preds = %2
  %12 = load ptr, ptr %5, align 8
  %13 = call noundef ptr @_ZN5clang23ObjCAutoreleasePoolStmt10getSubStmtEv(ptr noundef nonnull align 8 dereferenceable(24) %12)
  %14 = call noundef zeroext i1 @_ZN5clang15StmtVisitorBaseISt11add_pointerN12_GLOBAL__N_112EmptyCheckerEbJEE5VisitEPNS_4StmtE(ptr noundef nonnull align 1 dereferenceable(1) %6, ptr noundef %13)
  store i1 %14, ptr %3, align 1
  br label %15

15:                                               ; preds = %11, %10
  %16 = load i1, ptr %3, align 1
  ret i1 %16
}