; Function Attrs: mustprogress nounwind uwtable
define internal fastcc noundef zeroext i1 @_ZN12_GLOBAL__N_112EmptyChecker28VisitObjCAutoreleasePoolStmtEPN5clang23ObjCAutoreleasePoolStmtE(ptr noundef nonnull readonly align 8 captures(none) dereferenceable(16) %0, ptr noundef readonly captures(none) %1) unnamed_addr #0 align 2 {
  %3 = getelementptr inbounds nuw i8, ptr %1, i64 16
  %4 = load ptr, ptr %3, align 8
  %.not = icmp eq ptr %4, null
  br i1 %.not, label %7, label %5

5:                                                ; preds = %2
  %6 = tail call fastcc noundef zeroext i1 @_ZN5clang15StmtVisitorBaseISt11add_pointerN12_GLOBAL__N_112EmptyCheckerEbJEE5VisitEPNS_4StmtE(ptr noundef nonnull align 1 dereferenceable(1) %0, ptr noundef nonnull %4)
  br label %7

7:                                                ; preds = %2, %5
  %.0 = phi i1 [ %6, %5 ], [ false, %2 ]
  ret i1 %.0
}